target datalayout = "e-m:e-p270:32:32-p271:32:32-p272:64:64-i64:64-i128:128-f80:128-n8:16:32:64-S128"
target triple = "x86_64-pc-linux-gnu"

; Function Attrs: nounwind uwtable
define ptr @Abc_AigOr(ptr noundef %0, ptr noundef %1, ptr noundef %2) #0 {
  %4 = alloca ptr, align 8
  %5 = alloca ptr, align 8
  %6 = alloca ptr, align 8
  store ptr %0, ptr %4, align 8
  store ptr %1, ptr %5, align 8
  store ptr %2, ptr %6, align 8
  %7 = load ptr, ptr %4, align 8
  %8 = load ptr, ptr %5, align 8
  %9 = call ptr @Abc_ObjNot(ptr noundef %8)
  %10 = load ptr, ptr %6, align 8
  %11 = call ptr @Abc_ObjNot(ptr noundef %10)
  %12 = call ptr @Abc_AigAnd(ptr noundef %7, ptr noundef %9, ptr noundef %11)
  %13 = call ptr @Abc_ObjNot(ptr noundef %12)
  ret ptr %13
}

; Function Attrs: nounwind uwtable
define internal ptr @Abc_ObjNot(ptr noundef %0) #0 {
  %2 = alloca ptr, align 8
  store ptr %0, ptr %2, align 8
  %3 = load ptr, ptr %2, align 8
  %4 = ptrtoint ptr %3 to i64
  %5 = xor i64 %4, 1
  %6 = inttoptr i64 %5 to ptr
  ret ptr %6
}

; Function Attrs: nounwind uwtable
define ptr @Abc_AigXor(ptr noundef %0, ptr noundef %1, ptr noundef %2) #0 {
  %4 = alloca ptr, align 8
  %5 = alloca ptr, align 8
  %6 = alloca ptr, align 8
  store ptr %0, ptr %4, align 8
  store ptr %1, ptr %5, align 8
  store ptr %2, ptr %6, align 8
  %7 = load ptr, ptr %4, align 8
  %8 = load ptr, ptr %4, align 8
  %9 = load ptr, ptr %5, align 8
  %10 = load ptr, ptr %6, align 8
  %11 = call ptr @Abc_ObjNot(ptr noundef %10)
  %12 = call ptr @Abc_AigAnd(ptr noundef %8, ptr noundef %9, ptr noundef %11)
  %13 = load ptr, ptr %4, align 8
  %14 = load ptr, ptr %6, align 8
  %15 = load ptr, ptr %5, align 8
  %16 = call ptr @Abc_ObjNot(ptr noundef %15)
  %17 = call ptr @Abc_AigAnd(ptr noundef %13, ptr noundef %14, ptr noundef %16)
  %18 = call ptr @Abc_AigOr(ptr noundef %7, ptr noundef %12, ptr noundef %17)
  ret ptr %18
}