; Function Attrs: nounwind uwtable
define ptr @Abc_AigXor(ptr noundef captures(none) %0, ptr noundef %1, ptr noundef %2) local_unnamed_addr #0 {
  %4 = ptrtoint ptr %2 to i64
  %5 = xor i64 %4, 1
  %6 = inttoptr i64 %5 to ptr
  %7 = tail call ptr @Abc_AigAnd(ptr noundef %0, ptr noundef %1, ptr noundef %6)
  %8 = ptrtoint ptr %1 to i64
  %9 = xor i64 %8, 1
  %10 = inttoptr i64 %9 to ptr
  %11 = tail call ptr @Abc_AigAnd(ptr noundef %0, ptr noundef %2, ptr noundef %10)
  %12 = ptrtoint ptr %7 to i64
  %13 = xor i64 %12, 1
  %14 = inttoptr i64 %13 to ptr
  %15 = ptrtoint ptr %11 to i64
  %16 = xor i64 %15, 1
  %17 = inttoptr i64 %16 to ptr
  %18 = tail call ptr @Abc_AigAnd(ptr noundef %0, ptr noundef %14, ptr noundef %17)
  %19 = ptrtoint ptr %18 to i64
  %20 = xor i64 %19, 1
  %21 = inttoptr i64 %20 to ptr
  ret ptr %21
}